target datalayout = "e-m:e-p270:32:32-p271:32:32-p272:64:64-i64:64-i128:128-f80:128-n8:16:32:64-S128"
target triple = "x86_64-pc-linux-gnu"

@.str.478 = private unnamed_addr constant [61 x i8] c"Location updating and the network does not set NECI bit to 1\00", align 1
@.str.479 = private unnamed_addr constant [92 x i8] c"Answer to paging: 'Any Channel', or ('TCH/F' or 'TCH/H or TCH/F') if MS is 'Full rate only'\00", align 1
@.str.480 = private unnamed_addr constant [15 x i8] c"Emergency call\00", align 1
@.str.481 = private unnamed_addr constant [104 x i8] c"Call re-establishment; TCH/F was in use, or TCH/H was in use but the network does not set NECI bit to 1\00", align 1
@.str.482 = private unnamed_addr constant [194 x i8] c"Originating call and TCH/F is needed, or originating call and the network does not set NECI bit to 1, or procedures that can be completed with a SDCCH and the network does not set NECI bit to 1\00", align 1
@.str.483 = private unnamed_addr constant [53 x i8] c"Location updating and the network sets NECI bit to 1\00", align 1
@.str.484 = private unnamed_addr constant [117 x i8] c"Answer to paging: 'SDCCH' / Other procedures which can be completed with an SDCCH and the network sets NECI bit to 1\00", align 1
@.str.485 = private unnamed_addr constant [68 x i8] c"Answer to paging: MS is dual rate capable and requests 'TCH/F' only\00", align 1
@.str.486 = private unnamed_addr constant [72 x i8] c"Answer to paging: MS is dual rate capable and requests 'TCH/H or TCH/F'\00", align 1
@.str.487 = private unnamed_addr constant [114 x i8] c"Originating speech call from dual-rate mobile station when TCH/H is sufficient and the network sets NECI bit to 1\00", align 1
@.str.488 = private unnamed_addr constant [112 x i8] c"Originating data call from dual-rate mobile station when TCH/H is sufficient and the network sets NECI bit to 1\00", align 1
@.str.489 = private unnamed_addr constant [51 x i8] c"Reserved for future use. An SDCCH may be allocated\00", align 1
@.str.490 = private unnamed_addr constant [75 x i8] c"Call re-establishment; TCH/H was in use and the network sets NECI bit to 1\00", align 1
@.str.491 = private unnamed_addr constant [83 x i8] c"Call re-establishment; TCH/H + TCH/H was in use and the network sets NECI bit to 1\00", align 1
@.str.492 = private unnamed_addr constant [14 x i8] c"unknown ra %u\00", align 1
@.str.493 = private unnamed_addr constant [3 x i8] c"%s\00", align 1

; Function Attrs: null_pointer_is_valid sspstrong uwtable
define internal void @req_ref_ra_est_cause_convert(ptr noundef %0, i32 noundef %1) #0 {
  %3 = alloca ptr, align 8
  %4 = alloca i32, align 4
  %5 = alloca ptr, align 8
  %6 = alloca i32, align 4
  store ptr %0, ptr %3, align 8
  store i32 %1, ptr %4, align 4
  call void @llvm.lifetime.start.p0(i64 8, ptr %5) #6
  %7 = load i32, ptr %4, align 4
  %8 = and i32 %7, 224
  switch i32 %8, label %14 [
    i32 0, label %9
    i32 128, label %10
    i32 160, label %11
    i32 192, label %12
    i32 224, label %13
  ]

9:                                                ; preds = %2
  store ptr @.str.478, ptr %5, align 8
  br label %39

10:                                               ; preds = %2
  store ptr @.str.479, ptr %5, align 8
  br label %39

11:                                               ; preds = %2
  store ptr @.str.480, ptr %5, align 8
  br label %39

12:                                               ; preds = %2
  store ptr @.str.481, ptr %5, align 8
  br label %39

13:                                               ; preds = %2
  store ptr @.str.482, ptr %5, align 8
  br label %39

14:                                               ; preds = %2
  %15 = load i32, ptr %4, align 4
  %16 = and i32 %15, 240
  switch i32 %16, label %24 [
    i32 0, label %17
    i32 16, label %18
    i32 32, label %19
    i32 48, label %20
    i32 64, label %21
    i32 80, label %22
    i32 112, label %23
  ]

17:                                               ; preds = %14
  store ptr @.str.483, ptr %5, align 8
  br label %39

18:                                               ; preds = %14
  store ptr @.str.484, ptr %5, align 8
  br label %39

19:                                               ; preds = %14
  store ptr @.str.485, ptr %5, align 8
  br label %39

20:                                               ; preds = %14
  store ptr @.str.486, ptr %5, align 8
  br label %39

21:                                               ; preds = %14
  store ptr @.str.487, ptr %5, align 8
  br label %39

22:                                               ; preds = %14
  store ptr @.str.488, ptr %5, align 8
  br label %39

23:                                               ; preds = %14
  store ptr @.str.489, ptr %5, align 8
  br label %39

24:                                               ; preds = %14
  %25 = load i32, ptr %4, align 4
  %26 = and i32 %25, 248
  switch i32 %26, label %28 [
    i32 96, label %27
  ]

27:                                               ; preds = %24
  store ptr @.str.489, ptr %5, align 8
  br label %39

28:                                               ; preds = %24
  %29 = load i32, ptr %4, align 4
  %30 = and i32 %29, 252
  switch i32 %30, label %33 [
    i32 104, label %31
    i32 108, label %32
  ]

31:                                               ; preds = %28
  store ptr @.str.490, ptr %5, align 8
  br label %39

32:                                               ; preds = %28
  store ptr @.str.491, ptr %5, align 8
  br label %39

33:                                               ; preds = %28
  %34 = load ptr, ptr %3, align 8
  %35 = load ptr, ptr %3, align 8
  %36 = call i64 @llvm.objectsize.i64.p0(ptr %35, i1 false, i1 true, i1 true)
  %37 = load i32, ptr %4, align 4
  %38 = call i32 (ptr, i64, i32, i64, ptr, ...) @__snprintf_chk(ptr noundef %34, i64 noundef 240, i32 noundef 2, i64 noundef %36, ptr noundef @.str.492, i32 noundef %37)
  store i32 1, ptr %6, align 4
  br label %45

39:                                               ; preds = %32, %31, %27, %23, %22, %21, %20, %19, %18, %17, %13, %12, %11, %10, %9
  %40 = load ptr, ptr %3, align 8
  %41 = load ptr, ptr %3, align 8
  %42 = call i64 @llvm.objectsize.i64.p0(ptr %41, i1 false, i1 true, i1 true)
  %43 = load ptr, ptr %5, align 8
  %44 = call i32 (ptr, i64, i32, i64, ptr, ...) @__snprintf_chk(ptr noundef %40, i64 noundef 240, i32 noundef 2, i64 noundef %42, ptr noundef @.str.493, ptr noundef %43)
  store i32 0, ptr %6, align 4
  br label %45

45:                                               ; preds = %39, %33
  call void @llvm.lifetime.end.p0(i64 8, ptr %5) #6
  %46 = load i32, ptr %6, align 4
  switch i32 %46, label %48 [
    i32 0, label %47
    i32 1, label %47
  ]

47:                                               ; preds = %45, %45
  ret void

48:                                               ; preds = %45
  unreachable
}