; Function Attrs: nofree null_pointer_is_valid sspstrong uwtable
define internal void @req_ref_ra_est_cause_convert(ptr noundef %0, i32 noundef %1) #1 {
switch.hole_check:
  %2 = lshr i32 %1, 5
  %3 = and i32 %2, 7
  %switch.maskindex = trunc nuw nsw i32 %3 to i8
  %switch.shifted = lshr i8 -15, %switch.maskindex
  %switch.lobit = trunc i8 %switch.shifted to i1
  br i1 %switch.lobit, label %switch.lookup, label %4

4:                                                ; preds = %switch.hole_check
  %5 = lshr i32 %1, 4
  %6 = and i32 %5, 15
  %7 = icmp samesign ult i32 %6, 8
  br i1 %7, label %switch.hole_check10, label %8

8:                                                ; preds = %switch.hole_check10, %4
  %9 = and i32 %1, 248
  %cond = icmp eq i32 %9, 96
  br i1 %cond, label %17, label %10

10:                                               ; preds = %8
  %11 = trunc i32 %1 to i8
  %trunc = and i8 %11, -4
  switch i8 %trunc, label %13 [
    i8 104, label %17
    i8 108, label %12
  ]

12:                                               ; preds = %10
  br label %17

13:                                               ; preds = %10
  %14 = tail call i32 (ptr, i64, i32, i64, ptr, ...) @__snprintf_chk(ptr noundef %0, i64 noundef 240, i32 noundef 2, i64 noundef -1, ptr noundef nonnull @.str.492, i32 noundef %1)
  br label %19

switch.lookup:                                    ; preds = %switch.hole_check
  %15 = zext nneg i32 %3 to i64
  %switch.gep = getelementptr inbounds nuw [8 x ptr], ptr @switch.table.req_ref_ra_est_cause_convert, i64 0, i64 %15
  %switch.load = load ptr, ptr %switch.gep, align 8
  br label %17

switch.hole_check10:                              ; preds = %4
  %switch.maskindex12 = trunc nuw nsw i32 %6 to i8
  %switch.shifted13 = lshr i8 -65, %switch.maskindex12
  %switch.lobit14 = trunc i8 %switch.shifted13 to i1
  br i1 %switch.lobit14, label %switch.lookup11, label %8

switch.lookup11:                                  ; preds = %switch.hole_check10
  %16 = zext nneg i32 %6 to i64
  %switch.gep15 = getelementptr inbounds nuw [8 x ptr], ptr @switch.table.req_ref_ra_est_cause_convert.55, i64 0, i64 %16
  %switch.load16 = load ptr, ptr %switch.gep15, align 8
  br label %17

17:                                               ; preds = %switch.lookup11, %switch.lookup, %10, %8, %12
  %.0 = phi ptr [ @.str.491, %12 ], [ @.str.489, %8 ], [ @.str.490, %10 ], [ %switch.load, %switch.lookup ], [ %switch.load16, %switch.lookup11 ]
  %18 = tail call i32 (ptr, i64, i32, i64, ptr, ...) @__snprintf_chk(ptr noundef %0, i64 noundef 240, i32 noundef 2, i64 noundef -1, ptr noundef nonnull @.str.493, ptr noundef nonnull %.0)
  br label %19

19:                                               ; preds = %17, %13
  ret void
}